
release/tmain.elf:     file format elf32-littlearm


Disassembly of section .init:

0000833c <_init>:
    833c:	e92d4008 	push	{r3, lr}
    8340:	eb000020 	bl	83c8 <call_gmon_start>
    8344:	e8bd8008 	pop	{r3, pc}

Disassembly of section .plt:

00008348 <.plt>:
    8348:	e52de004 	push	{lr}		; (str lr, [sp, #-4]!)
    834c:	e59fe004 	ldr	lr, [pc, #4]	; 8358 <_init+0x1c>
    8350:	e08fe00e 	add	lr, pc, lr
    8354:	e5bef008 	ldr	pc, [lr, #8]!
    8358:	000083e8 	.word	0x000083e8
    835c:	e28fc600 	add	ip, pc, #0
    8360:	e28cca08 	add	ip, ip, #32768	; 0x8000
    8364:	e5bcf3e8 	ldr	pc, [ip, #1000]!	; 0x3e8
    8368:	e28fc600 	add	ip, pc, #0
    836c:	e28cca08 	add	ip, ip, #32768	; 0x8000
    8370:	e5bcf3e0 	ldr	pc, [ip, #992]!	; 0x3e0
    8374:	e28fc600 	add	ip, pc, #0
    8378:	e28cca08 	add	ip, ip, #32768	; 0x8000
    837c:	e5bcf3d8 	ldr	pc, [ip, #984]!	; 0x3d8
    8380:	e28fc600 	add	ip, pc, #0
    8384:	e28cca08 	add	ip, ip, #32768	; 0x8000
    8388:	e5bcf3d0 	ldr	pc, [ip, #976]!	; 0x3d0

Disassembly of section .text:

0000838c <_start>:
    838c:	e3a0b000 	mov	fp, #0
    8390:	e3a0e000 	mov	lr, #0
    8394:	e49d1004 	pop	{r1}		; (ldr r1, [sp], #4)
    8398:	e1a0200d 	mov	r2, sp
    839c:	e52d2004 	push	{r2}		; (str r2, [sp, #-4]!)
    83a0:	e52d0004 	push	{r0}		; (str r0, [sp, #-4]!)
    83a4:	e59fc010 	ldr	ip, [pc, #16]	; 83bc <_start+0x30>
    83a8:	e52dc004 	push	{ip}		; (str ip, [sp, #-4]!)
    83ac:	e59f000c 	ldr	r0, [pc, #12]	; 83c0 <_start+0x34>
    83b0:	e59f300c 	ldr	r3, [pc, #12]	; 83c4 <_start+0x38>
    83b4:	ebffffeb 	bl	8368 <_init+0x2c>
    83b8:	ebffffe7 	bl	835c <_init+0x20>
    83bc:	00008490 	.word	0x00008490
    83c0:	00008438 	.word	0x00008438
    83c4:	00008494 	.word	0x00008494

000083c8 <call_gmon_start>:
    83c8:	e59f3014 	ldr	r3, [pc, #20]	; 83e4 <call_gmon_start+0x1c>
    83cc:	e59f0014 	ldr	r0, [pc, #20]	; 83e8 <call_gmon_start+0x20>
    83d0:	e08f3003 	add	r3, pc, r3
    83d4:	e7932000 	ldr	r2, [r3, r0]
    83d8:	e3520000 	cmp	r2, #0
    83dc:	012fff1e 	bxeq	lr
    83e0:	eaffffe3 	b	8374 <_init+0x38>
    83e4:	00008368 	.word	0x00008368
    83e8:	0000001c 	.word	0x0000001c

000083ec <__do_global_dtors_aux>:
    83ec:	e59f3010 	ldr	r3, [pc, #16]	; 8404 <__do_global_dtors_aux+0x18>
    83f0:	e5d32000 	ldrb	r2, [r3]
    83f4:	e3520000 	cmp	r2, #0
    83f8:	03a02001 	moveq	r2, #1
    83fc:	05c32000 	strbeq	r2, [r3]
    8400:	e12fff1e 	bx	lr
    8404:	00010768 	.word	0x00010768

00008408 <frame_dummy>:
    8408:	e59f0020 	ldr	r0, [pc, #32]	; 8430 <frame_dummy+0x28>
    840c:	e92d4008 	push	{r3, lr}
    8410:	e5903000 	ldr	r3, [r0]
    8414:	e3530000 	cmp	r3, #0
    8418:	08bd8008 	popeq	{r3, pc}
    841c:	e59f3010 	ldr	r3, [pc, #16]	; 8434 <frame_dummy+0x2c>
    8420:	e3530000 	cmp	r3, #0
    8424:	08bd8008 	popeq	{r3, pc}
    8428:	e12fff33 	blx	r3
    842c:	e8bd8008 	pop	{r3, pc}
    8430:	00010644 	.word	0x00010644
    8434:	00000000 	.word	0x00000000

00008438 <main>:
#include "stdio.h"
#include "math.h"


int main()
{
    8438:	e92d4800 	push	{fp, lr}
    843c:	e28db004 	add	fp, sp, #4
	printf("Macro:\n"
    8440:	e59f3034 	ldr	r3, [pc, #52]	; 847c <main+0x44>
    8444:	e1a00003 	mov	r0, r3
    8448:	e59f1030 	ldr	r1, [pc, #48]	; 8480 <main+0x48>
    844c:	e59f2030 	ldr	r2, [pc, #48]	; 8484 <main+0x4c>
    8450:	e59f3030 	ldr	r3, [pc, #48]	; 8488 <main+0x50>
    8454:	ebffffc9 	bl	8380 <_init+0x44>
		"\tPRJ_NAME      %s\n"
		"\tPRJ_VERSION   %s\n"
		"\tBUILD_DATE    %s\n",
		PRJ_NAME,PRJ_VERSION,BUILD_DATE);

	printf("sin(pi/2) = %f\n", sin(M_PI/2));
    8458:	e59f302c 	ldr	r3, [pc, #44]	; 848c <main+0x54>
    845c:	e1a00003 	mov	r0, r3
    8460:	e3a02000 	mov	r2, #0
    8464:	e3a035ff 	mov	r3, #1069547520	; 0x3fc00000
    8468:	e2833603 	add	r3, r3, #3145728	; 0x300000
    846c:	ebffffc3 	bl	8380 <_init+0x44>
	return 0;
    8470:	e3a03000 	mov	r3, #0
    8474:	e1a00003 	mov	r0, r3
    8478:	e8bd8800 	pop	{fp, pc}
    847c:	0000856c 	.word	0x0000856c
    8480:	000085ac 	.word	0x000085ac
    8484:	000085bc 	.word	0x000085bc
    8488:	000085c4 	.word	0x000085c4
    848c:	000085d8 	.word	0x000085d8

00008490 <__libc_csu_fini>:
    8490:	e12fff1e 	bx	lr

00008494 <__libc_csu_init>:
    8494:	e92d47f0 	push	{r4, r5, r6, r7, r8, r9, sl, lr}
    8498:	e1a08000 	mov	r8, r0
    849c:	e1a07001 	mov	r7, r1
    84a0:	e1a06002 	mov	r6, r2
    84a4:	ebffffa4 	bl	833c <_init>
    84a8:	e59f30a4 	ldr	r3, [pc, #164]	; 8554 <__libc_csu_init+0xc0>
    84ac:	e59f00a4 	ldr	r0, [pc, #164]	; 8558 <__libc_csu_init+0xc4>
    84b0:	e59fa0a4 	ldr	sl, [pc, #164]	; 855c <__libc_csu_init+0xc8>
    84b4:	e0639000 	rsb	r9, r3, r0
    84b8:	e08fa00a 	add	sl, pc, sl
    84bc:	e1b09149 	asrs	r9, r9, #2
    84c0:	e08aa003 	add	sl, sl, r3
    84c4:	08bd87f0 	popeq	{r4, r5, r6, r7, r8, r9, sl, pc}
    84c8:	e3a04001 	mov	r4, #1
    84cc:	e1a00008 	mov	r0, r8
    84d0:	e1a01007 	mov	r1, r7
    84d4:	e1a02006 	mov	r2, r6
    84d8:	e2495001 	sub	r5, r9, #1
    84dc:	e1a0e00f 	mov	lr, pc
    84e0:	e59af000 	ldr	pc, [sl]
    84e4:	e1540009 	cmp	r4, r9
    84e8:	e0055004 	and	r5, r5, r4
    84ec:	28bd87f0 	popcs	{r4, r5, r6, r7, r8, r9, sl, pc}
    84f0:	e3550000 	cmp	r5, #0
    84f4:	0a000007 	beq	8518 <__libc_csu_init+0x84>
    84f8:	e1a00008 	mov	r0, r8
    84fc:	e1a01007 	mov	r1, r7
    8500:	e1a02006 	mov	r2, r6
    8504:	e3a04002 	mov	r4, #2
    8508:	e1a0e00f 	mov	lr, pc
    850c:	e59af004 	ldr	pc, [sl, #4]
    8510:	e1540009 	cmp	r4, r9
    8514:	28bd87f0 	popcs	{r4, r5, r6, r7, r8, r9, sl, pc}
    8518:	e2845001 	add	r5, r4, #1
    851c:	e1a00008 	mov	r0, r8
    8520:	e1a01007 	mov	r1, r7
    8524:	e1a02006 	mov	r2, r6
    8528:	e1a0e00f 	mov	lr, pc
    852c:	e79af104 	ldr	pc, [sl, r4, lsl #2]
    8530:	e2854001 	add	r4, r5, #1
    8534:	e1a00008 	mov	r0, r8
    8538:	e1a01007 	mov	r1, r7
    853c:	e1a02006 	mov	r2, r6
    8540:	e1a0e00f 	mov	lr, pc
    8544:	e79af105 	ldr	pc, [sl, r5, lsl #2]
    8548:	e1540009 	cmp	r4, r9
    854c:	3afffff1 	bcc	8518 <__libc_csu_init+0x84>
    8550:	e8bd87f0 	pop	{r4, r5, r6, r7, r8, r9, sl, pc}
    8554:	fffffefc 	.word	0xfffffefc
    8558:	ffffff00 	.word	0xffffff00
    855c:	00008280 	.word	0x00008280

Disassembly of section .fini:

00008560 <_fini>:
    8560:	e92d4008 	push	{r3, lr}
    8564:	e8bd8008 	pop	{r3, pc}
